target datalayout = "e-m:e-p270:32:32-p271:32:32-p272:64:64-i64:64-i128:128-f80:128-n8:16:32:64-S128"
target triple = "x86_64-pc-linux-gnu"

%struct.hb_font_funcs_t = type { %struct.hb_object_header_t, ptr, ptr, %"union.hb_font_funcs_t::get_t" }
%struct.hb_object_header_t = type { %struct.hb_reference_count_t, %struct.hb_atomic_int_t, %struct.hb_atomic_ptr_t }
%struct.hb_reference_count_t = type { %struct.hb_atomic_int_t }
%struct.hb_atomic_int_t = type { i32 }
%struct.hb_atomic_ptr_t = type { ptr }
%"union.hb_font_funcs_t::get_t" = type { %"struct.hb_font_funcs_t::get_t::get_funcs_t" }
%"struct.hb_font_funcs_t::get_t::get_funcs_t" = type { ptr, ptr, ptr, ptr, ptr, ptr, ptr, ptr, ptr, ptr, ptr, ptr, ptr, ptr, ptr, ptr, ptr, ptr, ptr }
%struct.hb_atomic_ptr_t.1 = type { ptr }
%struct.hb_atomic_ptr_t.5 = type { ptr }
%struct.hb_font_t = type { %struct.hb_object_header_t, i32, i32, ptr, ptr, i32, i32, float, float, i8, i32, i32, float, float, float, float, i64, i64, i32, i32, float, i32, i32, ptr, ptr, ptr, ptr, ptr, %struct.hb_shaper_object_dataset_t }
%struct.hb_shaper_object_dataset_t = type { ptr, %struct.hb_shaper_lazy_loader_t, %struct.hb_shaper_lazy_loader_t.2 }
%struct.hb_shaper_lazy_loader_t = type { %struct.hb_lazy_loader_t }
%struct.hb_lazy_loader_t = type { %struct.hb_atomic_ptr_t.1 }
%struct.hb_shaper_lazy_loader_t.2 = type { %struct.hb_lazy_loader_t.3 }
%struct.hb_lazy_loader_t.3 = type { %struct.hb_atomic_ptr_t.5 }
%struct.anon.0 = type { ptr, ptr, ptr, ptr, ptr, ptr, ptr, ptr, ptr, ptr, ptr, ptr, ptr, ptr, ptr, ptr, ptr, ptr, ptr }

; Function Attrs: mustprogress uwtable
define linkonce_odr hidden noundef i32 @_ZN9hb_font_t18get_glyph_v_originEjPiS0_(ptr noundef nonnull align 8 dereferenceable(192) %0, i32 noundef %1, ptr noundef %2, ptr noundef %3) #0 comdat align 2 {
  %5 = alloca ptr, align 8
  %6 = alloca i32, align 4
  %7 = alloca ptr, align 8
  %8 = alloca ptr, align 8
  store ptr %0, ptr %5, align 8
  store i32 %1, ptr %6, align 4
  store ptr %2, ptr %7, align 8
  store ptr %3, ptr %8, align 8
  %9 = load ptr, ptr %5, align 8
  %10 = load ptr, ptr %8, align 8
  store i32 0, ptr %10, align 4
  %11 = load ptr, ptr %7, align 8
  store i32 0, ptr %11, align 4
  %12 = getelementptr inbounds %struct.hb_font_t, ptr %9, i32 0, i32 25
  %13 = load ptr, ptr %12, align 8
  %14 = getelementptr inbounds %struct.hb_font_funcs_t, ptr %13, i32 0, i32 3
  %15 = getelementptr inbounds %"struct.hb_font_funcs_t::get_t::get_funcs_t", ptr %14, i32 0, i32 10
  %16 = load ptr, ptr %15, align 8
  %17 = getelementptr inbounds %struct.hb_font_t, ptr %9, i32 0, i32 26
  %18 = load ptr, ptr %17, align 8
  %19 = load i32, ptr %6, align 4
  %20 = load ptr, ptr %7, align 8
  %21 = load ptr, ptr %8, align 8
  %22 = getelementptr inbounds %struct.hb_font_t, ptr %9, i32 0, i32 25
  %23 = load ptr, ptr %22, align 8
  %24 = getelementptr inbounds %struct.hb_font_funcs_t, ptr %23, i32 0, i32 1
  %25 = load ptr, ptr %24, align 8
  %26 = icmp ne ptr %25, null
  br i1 %26, label %28, label %27

27:                                               ; preds = %4
  br label %35

28:                                               ; preds = %4
  %29 = getelementptr inbounds %struct.hb_font_t, ptr %9, i32 0, i32 25
  %30 = load ptr, ptr %29, align 8
  %31 = getelementptr inbounds %struct.hb_font_funcs_t, ptr %30, i32 0, i32 1
  %32 = load ptr, ptr %31, align 8
  %33 = getelementptr inbounds %struct.anon.0, ptr %32, i32 0, i32 10
  %34 = load ptr, ptr %33, align 8
  br label %35

35:                                               ; preds = %28, %27
  %36 = phi ptr [ null, %27 ], [ %34, %28 ]
  %37 = call noundef i32 %16(ptr noundef %9, ptr noundef %18, i32 noundef %19, ptr noundef %20, ptr noundef %21, ptr noundef %36)
  ret i32 %37
}

; Function Attrs: mustprogress uwtable
define hidden i32 @hb_font_get_glyph_v_origin(ptr noundef %0, i32 noundef %1, ptr noundef %2, ptr noundef %3) #0 {
  %5 = alloca ptr, align 8
  %6 = alloca i32, align 4
  %7 = alloca ptr, align 8
  %8 = alloca ptr, align 8
  store ptr %0, ptr %5, align 8
  store i32 %1, ptr %6, align 4
  store ptr %2, ptr %7, align 8
  store ptr %3, ptr %8, align 8
  %9 = load ptr, ptr %5, align 8
  %10 = load i32, ptr %6, align 4
  %11 = load ptr, ptr %7, align 8
  %12 = load ptr, ptr %8, align 8
  %13 = call noundef i32 @_ZN9hb_font_t18get_glyph_v_originEjPiS0_(ptr noundef nonnull align 8 dereferenceable(192) %9, i32 noundef %10, ptr noundef %11, ptr noundef %12)
  ret i32 %13
}