; Function Attrs: mustprogress uwtable
define hidden noundef i32 @hb_font_get_glyph_v_origin(ptr noundef %0, i32 noundef %1, ptr noundef %2, ptr noundef %3) local_unnamed_addr #1 {
  store i32 0, ptr %3, align 4
  store i32 0, ptr %2, align 4
  %5 = getelementptr inbounds i8, ptr %0, i64 144
  %6 = load ptr, ptr %5, align 8
  %7 = getelementptr inbounds i8, ptr %6, i64 112
  %8 = load ptr, ptr %7, align 8
  %9 = getelementptr inbounds i8, ptr %0, i64 152
  %10 = load ptr, ptr %9, align 8
  %11 = getelementptr inbounds i8, ptr %6, i64 16
  %12 = load ptr, ptr %11, align 8
  %.not.i = icmp eq ptr %12, null
  br i1 %.not.i, label %_ZN9hb_font_t18get_glyph_v_originEjPiS0_.exit, label %13

13:                                               ; preds = %4
  %14 = getelementptr inbounds i8, ptr %12, i64 80
  %15 = load ptr, ptr %14, align 8
  br label %_ZN9hb_font_t18get_glyph_v_originEjPiS0_.exit

_ZN9hb_font_t18get_glyph_v_originEjPiS0_.exit:    ; preds = %4, %13
  %16 = phi ptr [ %15, %13 ], [ null, %4 ]
  %17 = tail call noundef i32 %8(ptr noundef nonnull %0, ptr noundef %10, i32 noundef %1, ptr noundef nonnull %2, ptr noundef nonnull %3, ptr noundef %16)
  ret i32 %17
}